; Function Attrs: mustprogress uwtable
define hidden noundef i64 @_ZNK11opencv_onnx14ValueInfoProto12ByteSizeLongEv(ptr noundef nonnull align 8 dereferenceable(48) %0) unnamed_addr #3 align 2 {
  %2 = getelementptr inbounds nuw i8, ptr %0, i64 16
  %3 = load i32, ptr %2, align 8, !tbaa !51
  %4 = and i32 %3, 7
  %.not = icmp eq i32 %4, 0
  br i1 %.not, label %63, label %5

5:                                                ; preds = %1
  %6 = and i32 %3, 1
  %.not8 = icmp eq i32 %6, 0
  br i1 %.not8, label %25, label %7

7:                                                ; preds = %5
  %8 = getelementptr inbounds nuw i8, ptr %0, i64 24
  %9 = load ptr, ptr %8, align 8, !tbaa !41
  %10 = ptrtoint ptr %9 to i64
  %11 = and i64 %10, -2
  %12 = inttoptr i64 %11 to ptr
  %13 = getelementptr inbounds nuw i8, ptr %12, i64 8
  %14 = load i64, ptr %13, align 8, !tbaa !53
  %15 = trunc i64 %14 to i32
  %16 = or i32 %15, 1
  %17 = tail call range(i32 0, 33) i32 @llvm.ctlz.i32(i32 %16, i1 true)
  %18 = xor i32 %17, 31
  %19 = mul nuw nsw i32 %18, 9
  %20 = add nuw nsw i32 %19, 73
  %21 = lshr i32 %20, 6
  %22 = zext nneg i32 %21 to i64
  %23 = add i64 %14, 1
  %24 = add i64 %23, %22
  br label %25

25:                                               ; preds = %7, %5
  %.1 = phi i64 [ %24, %7 ], [ 0, %5 ]
  %26 = and i32 %3, 2
  %.not9 = icmp eq i32 %26, 0
  br i1 %.not9, label %46, label %27

27:                                               ; preds = %25
  %28 = getelementptr inbounds nuw i8, ptr %0, i64 32
  %29 = load ptr, ptr %28, align 8, !tbaa !41
  %30 = ptrtoint ptr %29 to i64
  %31 = and i64 %30, -2
  %32 = inttoptr i64 %31 to ptr
  %33 = getelementptr inbounds nuw i8, ptr %32, i64 8
  %34 = load i64, ptr %33, align 8, !tbaa !53
  %35 = trunc i64 %34 to i32
  %36 = or i32 %35, 1
  %37 = tail call range(i32 0, 33) i32 @llvm.ctlz.i32(i32 %36, i1 true)
  %38 = xor i32 %37, 31
  %39 = mul nuw nsw i32 %38, 9
  %40 = add nuw nsw i32 %39, 73
  %41 = lshr i32 %40, 6
  %42 = zext nneg i32 %41 to i64
  %43 = add i64 %.1, 1
  %44 = add i64 %43, %34
  %45 = add i64 %44, %42
  br label %46

46:                                               ; preds = %27, %25
  %.2 = phi i64 [ %45, %27 ], [ %.1, %25 ]
  %47 = and i32 %3, 4
  %.not10 = icmp eq i32 %47, 0
  br i1 %.not10, label %63, label %48

48:                                               ; preds = %46
  %49 = getelementptr inbounds nuw i8, ptr %0, i64 40
  %50 = load ptr, ptr %49, align 8, !tbaa !142
  %51 = tail call noundef i64 @_ZNK11opencv_onnx9TypeProto12ByteSizeLongEv(ptr noundef nonnull align 8 dereferenceable(48) %50)
  %52 = trunc i64 %51 to i32
  %53 = or i32 %52, 1
  %54 = tail call range(i32 0, 33) i32 @llvm.ctlz.i32(i32 %53, i1 true)
  %55 = xor i32 %54, 31
  %56 = mul nuw nsw i32 %55, 9
  %57 = add nuw nsw i32 %56, 73
  %58 = lshr i32 %57, 6
  %59 = zext nneg i32 %58 to i64
  %60 = add i64 %.2, 1
  %61 = add i64 %60, %51
  %62 = add i64 %61, %59
  br label %63

63:                                               ; preds = %46, %48, %1
  %.0 = phi i64 [ %62, %48 ], [ %.2, %46 ], [ 0, %1 ]
  %64 = getelementptr inbounds nuw i8, ptr %0, i64 20
  %65 = tail call noundef i64 @_ZNK6google8protobuf7Message29MaybeComputeUnknownFieldsSizeEmPNS0_8internal10CachedSizeE(ptr noundef nonnull align 8 dereferenceable(16) %0, i64 noundef %.0, ptr noundef nonnull %64)
  ret i64 %65
}